; Function Attrs: mustprogress uwtable
define void @_ZN8QuantLib21HestonExpansionEngineC2ERKN5boost10shared_ptrINS_11HestonModelEEENS0_22HestonExpansionFormulaE(ptr noundef nonnull align 8 dereferenceable(356) %this, ptr noundef nonnull align 8 dereferenceable(16) %model, i32 noundef %formula) unnamed_addr #8 align 2 {
entry:
  tail call void @_ZN8QuantLib18GenericModelEngineINS_11HestonModelENS_6Option9argumentsENS_14OneAssetOption7resultsEEC2ERKN5boost10shared_ptrIS1_EE(ptr noundef nonnull align 8 dereferenceable(352) %this, ptr noundef nonnull align 8 dereferenceable(16) %model)
  store ptr getelementptr inbounds inrange(-16, 56) (i8, ptr @_ZTVN8QuantLib21HestonExpansionEngineE, i64 16), ptr %this, align 8, !tbaa !35
  %add.ptr = getelementptr inbounds i8, ptr %this, i64 56
  store ptr getelementptr inbounds inrange(-16, 32) (i8, ptr @_ZTVN8QuantLib21HestonExpansionEngineE, i64 88), ptr %add.ptr, align 8, !tbaa !35
  %formula_ = getelementptr inbounds nuw i8, ptr %this, i64 352
  store i32 %formula, ptr %formula_, align 8, !tbaa !39
  ret void
}